; Function Attrs: mustprogress uwtable
define void @_ZN5arrow2io12StderrStream5WriteEPKvl(ptr noalias nocapture writeonly sret(%"class.arrow::Status") align 8 %agg.result, ptr nocapture noundef nonnull align 8 dereferenceable(16) %this, ptr noundef %data, i64 noundef %nbytes) unnamed_addr #8 align 2 {
entry:
  %pos_ = getelementptr inbounds i8, ptr %this, i64 8
  %0 = load i64, ptr %pos_, align 8
  %add = add nsw i64 %0, %nbytes
  store i64 %add, ptr %pos_, align 8
  %call = tail call noundef nonnull align 8 dereferenceable(8) ptr @_ZNSo5writeEPKcl(ptr noundef nonnull align 8 dereferenceable(8) @_ZSt4cerr, ptr noundef %data, i64 noundef %nbytes)
  store ptr null, ptr %agg.result, align 8, !alias.scope !29
  ret void
}